; Function Attrs: nounwind uwtable
define void @Cba_BlastMultiplier2(ptr noundef %0, ptr noundef readonly captures(none) %1, ptr noundef readonly captures(none) %2, i32 noundef %3, ptr noundef captures(none) %4, ptr noundef captures(none) %5) local_unnamed_addr #0 {
  %7 = load i32, ptr %5, align 8
  %.not.i.i = icmp slt i32 %7, %3
  br i1 %.not.i.i, label %8, label %Vec_IntGrow.exit.i

8:                                                ; preds = %6
  %9 = getelementptr inbounds nuw i8, ptr %5, i64 8
  %10 = load ptr, ptr %9, align 8
  %.not9.i.i = icmp eq ptr %10, null
  %11 = sext i32 %3 to i64
  %12 = shl nsw i64 %11, 2
  br i1 %.not9.i.i, label %15, label %13

13:                                               ; preds = %8
  %14 = tail call ptr @realloc(ptr noundef nonnull %10, i64 noundef %12) #18
  br label %17

15:                                               ; preds = %8
  %16 = tail call noalias ptr @malloc(i64 noundef %12) #19
  br label %17

17:                                               ; preds = %15, %13
  %18 = phi ptr [ %14, %13 ], [ %16, %15 ]
  store ptr %18, ptr %9, align 8
  store i32 %3, ptr %5, align 8
  br label %Vec_IntGrow.exit.i

Vec_IntGrow.exit.i:                               ; preds = %17, %6
  %19 = icmp sgt i32 %3, 0
  br i1 %19, label %.lr.ph.i, label %Vec_IntFill.exit.thread

Vec_IntFill.exit.thread:                          ; preds = %Vec_IntGrow.exit.i
  %20 = getelementptr inbounds nuw i8, ptr %5, i64 4
  store i32 %3, ptr %20, align 4
  br label %._crit_edge38

.lr.ph.i:                                         ; preds = %Vec_IntGrow.exit.i
  %21 = getelementptr inbounds nuw i8, ptr %5, i64 8
  %wide.trip.count.i = zext nneg i32 %3 to i64
  br label %22

22:                                               ; preds = %22, %.lr.ph.i
  %indvars.iv.i = phi i64 [ 0, %.lr.ph.i ], [ %indvars.iv.next.i, %22 ]
  %23 = load ptr, ptr %21, align 8
  %24 = getelementptr inbounds nuw i32, ptr %23, i64 %indvars.iv.i
  store i32 0, ptr %24, align 4
  %indvars.iv.next.i = add nuw nsw i64 %indvars.iv.i, 1
  %exitcond.not.i = icmp eq i64 %indvars.iv.next.i, %wide.trip.count.i
  br i1 %exitcond.not.i, label %Vec_IntFill.exit, label %22, !llvm.loop !4

Vec_IntFill.exit:                                 ; preds = %22
  %25 = getelementptr inbounds nuw i8, ptr %5, i64 4
  store i32 %3, ptr %25, align 4
  %26 = getelementptr i8, ptr %4, i64 8
  %27 = getelementptr inbounds nuw i8, ptr %4, i64 4
  %28 = getelementptr i8, ptr %5, i64 8
  %wide.trip.count = zext nneg i32 %3 to i64
  br label %29

29:                                               ; preds = %Vec_IntFill.exit, %._crit_edge
  %indvars.iv40 = phi i64 [ 0, %Vec_IntFill.exit ], [ %indvars.iv.next41, %._crit_edge ]
  %30 = load i32, ptr %4, align 8
  %31 = sext i32 %30 to i64
  %.not.i.i23 = icmp sgt i64 %indvars.iv40, %31
  br i1 %.not.i.i23, label %32, label %Vec_IntGrow.exit.i24

32:                                               ; preds = %29
  %33 = load ptr, ptr %26, align 8
  %.not9.i.i30 = icmp eq ptr %33, null
  %34 = shl nuw nsw i64 %indvars.iv40, 2
  br i1 %.not9.i.i30, label %37, label %35

35:                                               ; preds = %32
  %36 = tail call ptr @realloc(ptr noundef nonnull %33, i64 noundef %34) #18
  br label %39

37:                                               ; preds = %32
  %38 = tail call noalias ptr @malloc(i64 noundef %34) #19
  br label %39

39:                                               ; preds = %37, %35
  %40 = phi ptr [ %36, %35 ], [ %38, %37 ]
  store ptr %40, ptr %26, align 8
  %41 = trunc nuw nsw i64 %indvars.iv40 to i32
  store i32 %41, ptr %4, align 8
  br label %Vec_IntGrow.exit.i24

Vec_IntGrow.exit.i24:                             ; preds = %39, %29
  %.not = icmp eq i64 %indvars.iv40, 0
  br i1 %.not, label %.lr.ph, label %.lr.ph.i25

.lr.ph.i25:                                       ; preds = %Vec_IntGrow.exit.i24, %.lr.ph.i25
  %indvars.iv.i27 = phi i64 [ %indvars.iv.next.i28, %.lr.ph.i25 ], [ 0, %Vec_IntGrow.exit.i24 ]
  %42 = load ptr, ptr %26, align 8
  %43 = getelementptr inbounds nuw i32, ptr %42, i64 %indvars.iv.i27
  store i32 0, ptr %43, align 4
  %indvars.iv.next.i28 = add nuw nsw i64 %indvars.iv.i27, 1
  %exitcond.not.i29 = icmp eq i64 %indvars.iv.next.i28, %indvars.iv40
  br i1 %exitcond.not.i29, label %.lr.ph, label %.lr.ph.i25, !llvm.loop !4

.lr.ph:                                           ; preds = %.lr.ph.i25, %Vec_IntGrow.exit.i24
  %44 = trunc nuw nsw i64 %indvars.iv40 to i32
  store i32 %44, ptr %27, align 4
  %45 = getelementptr inbounds nuw i32, ptr %2, i64 %indvars.iv40
  br label %46

46:                                               ; preds = %.lr.ph, %Vec_IntPush.exit
  %indvars.iv = phi i64 [ 0, %.lr.ph ], [ %indvars.iv.next, %Vec_IntPush.exit ]
  %47 = getelementptr inbounds nuw i32, ptr %1, i64 %indvars.iv
  %48 = load i32, ptr %47, align 4
  %49 = load i32, ptr %45, align 4
  %50 = tail call i32 @Gia_ManHashAnd(ptr noundef %0, i32 noundef %48, i32 noundef %49) #20
  %51 = load i32, ptr %27, align 4
  %52 = load i32, ptr %4, align 8
  %53 = icmp eq i32 %51, %52
  br i1 %53, label %54, label %.Vec_IntGrow.exit10_crit_edge.i

.Vec_IntGrow.exit10_crit_edge.i:                  ; preds = %46
  %.pre.i = load ptr, ptr %26, align 8
  br label %Vec_IntPush.exit

54:                                               ; preds = %46
  %55 = icmp slt i32 %51, 16
  br i1 %55, label %56, label %63

56:                                               ; preds = %54
  %57 = load ptr, ptr %26, align 8
  %.not9.i.i32 = icmp eq ptr %57, null
  br i1 %.not9.i.i32, label %60, label %58

58:                                               ; preds = %56
  %59 = tail call dereferenceable_or_null(64) ptr @realloc(ptr noundef nonnull %57, i64 noundef 64) #18
  br label %Vec_IntGrow.exit.i33

60:                                               ; preds = %56
  %61 = tail call noalias dereferenceable_or_null(64) ptr @malloc(i64 noundef 64) #19
  br label %Vec_IntGrow.exit.i33

Vec_IntGrow.exit.i33:                             ; preds = %60, %58
  %62 = phi ptr [ %59, %58 ], [ %61, %60 ]
  store ptr %62, ptr %26, align 8
  store i32 16, ptr %4, align 8
  br label %Vec_IntPush.exit

63:                                               ; preds = %54
  %64 = shl nuw nsw i32 %51, 1
  %65 = load ptr, ptr %26, align 8
  %.not9.i9.i = icmp eq ptr %65, null
  %66 = zext nneg i32 %64 to i64
  %67 = shl nuw nsw i64 %66, 2
  br i1 %.not9.i9.i, label %70, label %68

68:                                               ; preds = %63
  %69 = tail call ptr @realloc(ptr noundef nonnull %65, i64 noundef %67) #18
  br label %72

70:                                               ; preds = %63
  %71 = tail call noalias ptr @malloc(i64 noundef %67) #19
  br label %72

72:                                               ; preds = %70, %68
  %73 = phi ptr [ %69, %68 ], [ %71, %70 ]
  store ptr %73, ptr %26, align 8
  store i32 %64, ptr %4, align 8
  br label %Vec_IntPush.exit

Vec_IntPush.exit:                                 ; preds = %.Vec_IntGrow.exit10_crit_edge.i, %Vec_IntGrow.exit.i33, %72
  %74 = phi ptr [ %.pre.i, %.Vec_IntGrow.exit10_crit_edge.i ], [ %73, %72 ], [ %62, %Vec_IntGrow.exit.i33 ]
  %75 = load i32, ptr %27, align 4
  %76 = add nsw i32 %75, 1
  store i32 %76, ptr %27, align 4
  %77 = sext i32 %75 to i64
  %78 = getelementptr inbounds i32, ptr %74, i64 %77
  store i32 %50, ptr %78, align 4
  %indvars.iv.next = add nuw nsw i64 %indvars.iv, 1
  %.val = load i32, ptr %27, align 4
  %79 = icmp slt i32 %.val, %3
  br i1 %79, label %46, label %._crit_edge, !llvm.loop !30

._crit_edge:                                      ; preds = %Vec_IntPush.exit
  %.val22 = load ptr, ptr %28, align 8
  %.val21 = load ptr, ptr %26, align 8
  %80 = tail call i32 @Cba_BlastAdder(ptr noundef %0, i32 noundef 0, ptr noundef %.val22, ptr noundef %.val21, i32 noundef %3)
  %indvars.iv.next41 = add nuw nsw i64 %indvars.iv40, 1
  %exitcond.not = icmp eq i64 %indvars.iv.next41, %wide.trip.count
  br i1 %exitcond.not, label %._crit_edge38, label %29, !llvm.loop !31

._crit_edge38:                                    ; preds = %._crit_edge, %Vec_IntFill.exit.thread
  ret void
}